target datalayout = "e-m:e-p270:32:32-p271:32:32-p272:64:64-i64:64-i128:128-f80:128-n8:16:32:64-S128"
target triple = "x86_64-pc-linux-gnu"

%struct.expert_field = type { i32, i32 }
%struct._packet_info = type { ptr, ptr, i32, i32, %struct.nstime_t, %struct.nstime_t, %struct.nstime_t, i8, ptr, ptr, ptr, ptr, %struct._address, %struct._address, %struct._address, %struct._address, %struct._address, %struct._address, i32, ptr, i8, [3 x i8], %struct.anon, i32, i32, i32, i32, ptr, i8, ptr, ptr, i16, i16, i32, i32, i16, i32, i32, ptr, ptr, ptr, i8, i8, i16, i16, i16, i32, i16, i16, ptr, ptr, ptr, ptr, ptr, i32, i32 }
%struct.nstime_t = type { i64, i32 }
%struct._address = type { i32, i32, ptr, ptr }
%struct.anon = type { i8, [3 x i8] }

@.str.64 = private unnamed_addr constant [5 x i8] c"PKTC\00", align 1
@proto_pktc = internal global i32 0, align 4
@ett_pktc_mtafqdn = internal global i32 0, align 4
@ei_pktc_unknown_kerberos_application = internal global %struct.expert_field zeroinitializer, align 4
@.str.139 = private unnamed_addr constant [12 x i8] c"MTA FQDN %s\00", align 1
@.str.140 = private unnamed_addr constant [6 x i8] c"Reply\00", align 1
@.str.141 = private unnamed_addr constant [8 x i8] c"Request\00", align 1
@.str.142 = private unnamed_addr constant [53 x i8] c"Unknown Kerberos application (%d), expected 10 or 11\00", align 1
@.str.143 = private unnamed_addr constant [47 x i8] c"Unknown Kerberos application (%d), expected 20\00", align 1
@cb = internal global [2 x { i32, [4 x i8], ptr }] [{ i32, [4 x i8], ptr } { i32 1, [4 x i8] zeroinitializer, ptr @dissect_pktc_mtafqdn_krbsafeuserdata }, { i32, [4 x i8], ptr } zeroinitializer], align 16

; Function Attrs: null_pointer_is_valid sspstrong uwtable
define internal i32 @dissect_pktc_mtafqdn(ptr noundef %0, ptr noundef %1, ptr noundef %2, ptr noundef %3) #0 {
  %5 = alloca i32, align 4
  %6 = alloca ptr, align 8
  %7 = alloca ptr, align 8
  %8 = alloca ptr, align 8
  %9 = alloca ptr, align 8
  %10 = alloca i32, align 4
  %11 = alloca ptr, align 8
  %12 = alloca ptr, align 8
  %13 = alloca ptr, align 8
  %14 = alloca i8, align 1
  %15 = alloca i8, align 1
  %16 = alloca i32, align 4
  %17 = alloca i32, align 4
  store ptr %0, ptr %6, align 8
  store ptr %1, ptr %7, align 8
  store ptr %2, ptr %8, align 8
  store ptr %3, ptr %9, align 8
  call void @llvm.lifetime.start.p0(i64 4, ptr %10) #5
  store i32 0, ptr %10, align 4
  call void @llvm.lifetime.start.p0(i64 8, ptr %11) #5
  call void @llvm.lifetime.start.p0(i64 8, ptr %12) #5
  call void @llvm.lifetime.start.p0(i64 8, ptr %13) #5
  call void @llvm.lifetime.start.p0(i64 1, ptr %14) #5
  call void @llvm.lifetime.start.p0(i64 1, ptr %15) #5
  call void @llvm.lifetime.start.p0(i64 4, ptr %16) #5
  %18 = load ptr, ptr %7, align 8
  %19 = getelementptr inbounds nuw %struct._packet_info, ptr %18, i32 0, i32 1
  %20 = load ptr, ptr %19, align 8
  call void @col_set_str(ptr noundef %20, i32 noundef 35, ptr noundef @.str.64)
  %21 = load ptr, ptr %8, align 8
  %22 = load i32, ptr @proto_pktc, align 4
  %23 = load ptr, ptr %6, align 8
  %24 = call ptr @proto_tree_add_item(ptr noundef %21, i32 noundef %22, ptr noundef %23, i32 noundef 0, i32 noundef 0, i32 noundef 0)
  store ptr %24, ptr %12, align 8
  %25 = load ptr, ptr %12, align 8
  %26 = load i32, ptr @ett_pktc_mtafqdn, align 4
  %27 = call ptr @proto_item_add_subtree(ptr noundef %25, i32 noundef %26)
  store ptr %27, ptr %11, align 8
  %28 = load ptr, ptr %7, align 8
  %29 = getelementptr inbounds nuw %struct._packet_info, ptr %28, i32 0, i32 1
  %30 = load ptr, ptr %29, align 8
  %31 = load ptr, ptr %7, align 8
  %32 = getelementptr inbounds nuw %struct._packet_info, ptr %31, i32 0, i32 24
  %33 = load i32, ptr %32, align 4
  %34 = load ptr, ptr %7, align 8
  %35 = getelementptr inbounds nuw %struct._packet_info, ptr %34, i32 0, i32 26
  %36 = load i32, ptr %35, align 4
  %37 = icmp eq i32 %33, %36
  %38 = select i1 %37, ptr @.str.140, ptr @.str.141
  call void (ptr, i32, ptr, ...) @col_add_fstr(ptr noundef %30, i32 noundef 25, ptr noundef @.str.139, ptr noundef %38)
  %39 = load ptr, ptr %6, align 8
  %40 = load i32, ptr %10, align 4
  %41 = call ptr @tvb_new_subset_remaining(ptr noundef %39, i32 noundef %40)
  store ptr %41, ptr %13, align 8
  %42 = load ptr, ptr %13, align 8
  %43 = call i32 @get_ber_identifier(ptr noundef %42, i32 noundef 0, ptr noundef %14, ptr noundef %15, ptr noundef %16)
  %44 = load i32, ptr %16, align 4
  %45 = icmp eq i32 %44, 14
  br i1 %45, label %49, label %46

46:                                               ; preds = %4
  %47 = load i32, ptr %16, align 4
  %48 = icmp eq i32 %47, 15
  br i1 %48, label %49, label %56

49:                                               ; preds = %46, %4
  %50 = load ptr, ptr %13, align 8
  %51 = load ptr, ptr %7, align 8
  %52 = load ptr, ptr %11, align 8
  %53 = call i32 @dissect_kerberos_main(ptr noundef %50, ptr noundef %51, ptr noundef %52, i1 noundef zeroext false, ptr noundef null)
  %54 = load i32, ptr %10, align 4
  %55 = add i32 %54, %53
  store i32 %55, ptr %10, align 4
  br label %63

56:                                               ; preds = %46
  %57 = load ptr, ptr %7, align 8
  %58 = load ptr, ptr %12, align 8
  %59 = load i32, ptr %16, align 4
  %60 = call ptr (ptr, ptr, ptr, ptr, ...) @expert_add_info_format(ptr noundef %57, ptr noundef %58, ptr noundef @ei_pktc_unknown_kerberos_application, ptr noundef @.str.142, i32 noundef %59)
  %61 = load ptr, ptr %6, align 8
  %62 = call i32 @tvb_captured_length(ptr noundef %61)
  store i32 %62, ptr %5, align 4
  store i32 1, ptr %17, align 4
  br label %88

63:                                               ; preds = %49
  %64 = load ptr, ptr %6, align 8
  %65 = load i32, ptr %10, align 4
  %66 = call ptr @tvb_new_subset_remaining(ptr noundef %64, i32 noundef %65)
  store ptr %66, ptr %13, align 8
  %67 = load ptr, ptr %13, align 8
  %68 = call i32 @get_ber_identifier(ptr noundef %67, i32 noundef 0, ptr noundef %14, ptr noundef %15, ptr noundef %16)
  %69 = load i32, ptr %16, align 4
  %70 = icmp eq i32 %69, 20
  br i1 %70, label %71, label %78

71:                                               ; preds = %63
  %72 = load ptr, ptr %13, align 8
  %73 = load ptr, ptr %7, align 8
  %74 = load ptr, ptr %11, align 8
  %75 = call i32 @dissect_kerberos_main(ptr noundef %72, ptr noundef %73, ptr noundef %74, i1 noundef zeroext false, ptr noundef @cb)
  %76 = load i32, ptr %10, align 4
  %77 = add i32 %76, %75
  store i32 %77, ptr %10, align 4
  br label %83

78:                                               ; preds = %63
  %79 = load ptr, ptr %7, align 8
  %80 = load ptr, ptr %12, align 8
  %81 = load i32, ptr %16, align 4
  %82 = call ptr (ptr, ptr, ptr, ptr, ...) @expert_add_info_format(ptr noundef %79, ptr noundef %80, ptr noundef @ei_pktc_unknown_kerberos_application, ptr noundef @.str.143, i32 noundef %81)
  br label %83

83:                                               ; preds = %78, %71
  %84 = load ptr, ptr %12, align 8
  %85 = load i32, ptr %10, align 4
  call void @proto_item_set_len(ptr noundef %84, i32 noundef %85)
  %86 = load ptr, ptr %6, align 8
  %87 = call i32 @tvb_captured_length(ptr noundef %86)
  store i32 %87, ptr %5, align 4
  store i32 1, ptr %17, align 4
  br label %88

88:                                               ; preds = %83, %56
  call void @llvm.lifetime.end.p0(i64 4, ptr %16) #5
  call void @llvm.lifetime.end.p0(i64 1, ptr %15) #5
  call void @llvm.lifetime.end.p0(i64 1, ptr %14) #5
  call void @llvm.lifetime.end.p0(i64 8, ptr %13) #5
  call void @llvm.lifetime.end.p0(i64 8, ptr %12) #5
  call void @llvm.lifetime.end.p0(i64 8, ptr %11) #5
  call void @llvm.lifetime.end.p0(i64 4, ptr %10) #5
  %89 = load i32, ptr %5, align 4
  ret i32 %89
}