; Function Attrs: null_pointer_is_valid sspstrong uwtable
define internal i32 @dissect_pktc_mtafqdn(ptr noundef %0, ptr noundef %1, ptr noundef %2, ptr readnone captures(none) %3) #0 {
  %5 = alloca i8, align 1
  %6 = alloca i8, align 1
  %7 = alloca i32, align 4
  call void @llvm.lifetime.start.p0(i64 1, ptr nonnull %5) #4
  call void @llvm.lifetime.start.p0(i64 1, ptr nonnull %6) #4
  call void @llvm.lifetime.start.p0(i64 4, ptr nonnull %7) #4
  %8 = getelementptr inbounds nuw i8, ptr %1, i64 8
  %9 = load ptr, ptr %8, align 8
  tail call void @col_set_str(ptr noundef %9, i32 noundef 35, ptr noundef nonnull @.str.64)
  %10 = load i32, ptr @proto_pktc, align 4
  %11 = tail call ptr @proto_tree_add_item(ptr noundef %2, i32 noundef %10, ptr noundef %0, i32 noundef 0, i32 noundef 0, i32 noundef 0)
  %12 = load i32, ptr @ett_pktc_mtafqdn, align 4
  %13 = tail call ptr @proto_item_add_subtree(ptr noundef %11, i32 noundef %12)
  %14 = load ptr, ptr %8, align 8
  %15 = getelementptr inbounds nuw i8, ptr %1, i64 284
  %16 = load i32, ptr %15, align 4
  %17 = getelementptr inbounds nuw i8, ptr %1, i64 292
  %18 = load i32, ptr %17, align 4
  %19 = icmp eq i32 %16, %18
  %20 = select i1 %19, ptr @.str.140, ptr @.str.141
  tail call void (ptr, i32, ptr, ...) @col_add_fstr(ptr noundef %14, i32 noundef 25, ptr noundef nonnull @.str.139, ptr noundef nonnull %20)
  %21 = tail call ptr @tvb_new_subset_remaining(ptr noundef %0, i32 noundef 0)
  %22 = call i32 @get_ber_identifier(ptr noundef %21, i32 noundef 0, ptr noundef nonnull %5, ptr noundef nonnull %6, ptr noundef nonnull %7)
  %23 = load i32, ptr %7, align 4
  %24 = and i32 %23, -2
  %or.cond = icmp eq i32 %24, 14
  br i1 %or.cond, label %25, label %31

25:                                               ; preds = %4
  %26 = call i32 @dissect_kerberos_main(ptr noundef %21, ptr noundef %1, ptr noundef %13, i1 noundef zeroext false, ptr noundef null)
  %27 = call ptr @tvb_new_subset_remaining(ptr noundef %0, i32 noundef %26)
  %28 = call i32 @get_ber_identifier(ptr noundef %27, i32 noundef 0, ptr noundef nonnull %5, ptr noundef nonnull %6, ptr noundef nonnull %7)
  %29 = load i32, ptr %7, align 4
  %30 = icmp eq i32 %29, 20
  br i1 %30, label %33, label %36

31:                                               ; preds = %4
  %32 = call ptr (ptr, ptr, ptr, ptr, ...) @expert_add_info_format(ptr noundef %1, ptr noundef %11, ptr noundef nonnull @ei_pktc_unknown_kerberos_application, ptr noundef nonnull @.str.142, i32 noundef %23)
  br label %39

33:                                               ; preds = %25
  %34 = call i32 @dissect_kerberos_main(ptr noundef %27, ptr noundef %1, ptr noundef %13, i1 noundef zeroext false, ptr noundef nonnull @cb)
  %35 = add i32 %34, %26
  br label %38

36:                                               ; preds = %25
  %37 = call ptr (ptr, ptr, ptr, ptr, ...) @expert_add_info_format(ptr noundef %1, ptr noundef %11, ptr noundef nonnull @ei_pktc_unknown_kerberos_application, ptr noundef nonnull @.str.143, i32 noundef %29)
  br label %38

38:                                               ; preds = %36, %33
  %.030 = phi i32 [ %35, %33 ], [ %26, %36 ]
  call void @proto_item_set_len(ptr noundef %11, i32 noundef %.030)
  br label %39

39:                                               ; preds = %38, %31
  %40 = call i32 @tvb_captured_length(ptr noundef %0)
  call void @llvm.lifetime.end.p0(i64 4, ptr nonnull %7) #4
  call void @llvm.lifetime.end.p0(i64 1, ptr nonnull %6) #4
  call void @llvm.lifetime.end.p0(i64 1, ptr nonnull %5) #4
  ret i32 %40
}